; Function Attrs: mustprogress uwtable
define dso_local noundef zeroext i1 @_ZN7cmState27GetCacheEntryPropertyAsBoolERKNSt7__cxx1112basic_stringIcSt11char_traitsIcESaIcEEES7_(ptr noundef nonnull readonly align 8 captures(none) dereferenceable(705) %0, ptr noundef nonnull align 8 dereferenceable(32) %1, ptr noundef nonnull align 8 dereferenceable(32) %2) local_unnamed_addr #5 align 2 {
  %4 = getelementptr inbounds nuw i8, ptr %0, i64 296
  %5 = load ptr, ptr %4, align 8, !tbaa !120
  %6 = tail call noundef ptr @_ZNK14cmCacheManager13GetCacheEntryERKNSt7__cxx1112basic_stringIcSt11char_traitsIcESaIcEEE(ptr noundef nonnull align 8 dereferenceable(60) %5, ptr noundef nonnull align 8 dereferenceable(32) %1)
  %.not.not.i = icmp ne ptr %6, null
  br i1 %.not.not.i, label %7, label %_ZNK14cmCacheManager27GetCacheEntryPropertyAsBoolERKNSt7__cxx1112basic_stringIcSt11char_traitsIcESaIcEEES7_.exit

7:                                                ; preds = %3
  %8 = tail call noundef zeroext i1 @_ZNK14cmCacheManager10CacheEntry17GetPropertyAsBoolERKNSt7__cxx1112basic_stringIcSt11char_traitsIcESaIcEEE(ptr noundef nonnull align 8 dereferenceable(97) %6, ptr noundef nonnull align 8 dereferenceable(32) %2)
  br label %_ZNK14cmCacheManager27GetCacheEntryPropertyAsBoolERKNSt7__cxx1112basic_stringIcSt11char_traitsIcESaIcEEES7_.exit

_ZNK14cmCacheManager27GetCacheEntryPropertyAsBoolERKNSt7__cxx1112basic_stringIcSt11char_traitsIcESaIcEEES7_.exit: ; preds = %3, %7
  %.06.i = phi i1 [ %8, %7 ], [ undef, %3 ]
  %spec.select.i = and i1 %.not.not.i, %.06.i
  ret i1 %spec.select.i
}